target datalayout = "e-m:e-p270:32:32-p271:32:32-p272:64:64-i64:64-i128:128-f80:128-n8:16:32:64-S128"
target triple = "x86_64-unknown-linux-gnu"

%struct.crypto_ex_data_st = type { ptr }
%struct.ssl_ctx_st = type { ptr, %union.crypto_mutex_st, i16, i16, ptr, ptr, ptr, ptr, ptr, ptr, i64, ptr, ptr, i32, i32, i64, ptr, ptr, ptr, i32, ptr, ptr, ptr, ptr, ptr, ptr, %struct.crypto_ex_data_st, ptr, ptr, ptr, ptr, i32, i32, i32, ptr, ptr, ptr, i32, i32, [32 x i8], ptr, ptr, ptr, ptr, i16, ptr, ptr, [16 x i8], [16 x i8], [16 x i8], ptr, ptr, ptr, ptr, i8, ptr, ptr, ptr, ptr, ptr, ptr, ptr, i32, ptr, i64, ptr, ptr, ptr, i64, ptr, i64, ptr, ptr, i8, ptr, i32 }
%union.crypto_mutex_st = type { double, [48 x i8] }

@.str = private unnamed_addr constant [116 x i8] c"generated/home/dtcxzyw/WorkSpace/Projects/compilers/llvm-opt-benchmark/bench/libquic/libquic/boringssl/ssl/s3_lib.c\00", align 1

; Function Attrs: nounwind uwtable
define internal i32 @is_p256_key(ptr noundef %private_key) #0 {
entry:
  %private_key.addr = alloca ptr, align 8
  %ec_key = alloca ptr, align 8
  store ptr %private_key, ptr %private_key.addr, align 8
  %0 = load ptr, ptr %private_key.addr, align 8
  %call = call ptr @EVP_PKEY_get0_EC_KEY(ptr noundef %0)
  store ptr %call, ptr %ec_key, align 8
  %1 = load ptr, ptr %ec_key, align 8
  %cmp = icmp ne ptr %1, null
  br i1 %cmp, label %land.rhs, label %land.end

land.rhs:                                         ; preds = %entry
  %2 = load ptr, ptr %ec_key, align 8
  %call1 = call ptr @EC_KEY_get0_group(ptr noundef %2)
  %call2 = call i32 @EC_GROUP_get_curve_name(ptr noundef %call1)
  %cmp3 = icmp eq i32 %call2, 415
  br label %land.end

land.end:                                         ; preds = %land.rhs, %entry
  %3 = phi i1 [ false, %entry ], [ %cmp3, %land.rhs ]
  %land.ext = zext i1 %3 to i32
  ret i32 %land.ext
}

; Function Attrs: nounwind uwtable
define hidden i32 @SSL_CTX_set1_tls_channel_id(ptr noundef %ctx, ptr noundef %private_key) #0 {
entry:
  %retval = alloca i32, align 4
  %ctx.addr = alloca ptr, align 8
  %private_key.addr = alloca ptr, align 8
  store ptr %ctx, ptr %ctx.addr, align 8
  store ptr %private_key, ptr %private_key.addr, align 8
  %0 = load ptr, ptr %private_key.addr, align 8
  %call = call i32 @is_p256_key(ptr noundef %0)
  %tobool = icmp ne i32 %call, 0
  br i1 %tobool, label %if.end, label %if.then

if.then:                                          ; preds = %entry
  call void @ERR_put_error(i32 noundef 16, i32 noundef 0, i32 noundef 128, ptr noundef @.str, i32 noundef 322)
  store i32 0, ptr %retval, align 4
  br label %return

if.end:                                           ; preds = %entry
  %1 = load ptr, ptr %ctx.addr, align 8
  %tlsext_channel_id_private = getelementptr inbounds %struct.ssl_ctx_st, ptr %1, i32 0, i32 66
  %2 = load ptr, ptr %tlsext_channel_id_private, align 8
  call void @EVP_PKEY_free(ptr noundef %2)
  %3 = load ptr, ptr %private_key.addr, align 8
  %call1 = call ptr @EVP_PKEY_up_ref(ptr noundef %3)
  %4 = load ptr, ptr %ctx.addr, align 8
  %tlsext_channel_id_private2 = getelementptr inbounds %struct.ssl_ctx_st, ptr %4, i32 0, i32 66
  store ptr %call1, ptr %tlsext_channel_id_private2, align 8
  %5 = load ptr, ptr %ctx.addr, align 8
  %tlsext_channel_id_enabled = getelementptr inbounds %struct.ssl_ctx_st, ptr %5, i32 0, i32 73
  %bf.load = load i8, ptr %tlsext_channel_id_enabled, align 8
  %bf.clear = and i8 %bf.load, -9
  %bf.set = or i8 %bf.clear, 8
  store i8 %bf.set, ptr %tlsext_channel_id_enabled, align 8
  store i32 1, ptr %retval, align 4
  br label %return

return:                                           ; preds = %if.end, %if.then
  %6 = load i32, ptr %retval, align 4
  ret i32 %6
}