; Function Attrs: nounwind uwtable
define hidden range(i32 0, 2) i32 @SSL_CTX_set1_tls_channel_id(ptr noundef captures(none) %ctx, ptr noundef %private_key) local_unnamed_addr #1 {
entry:
  %call.i = tail call ptr @EVP_PKEY_get0_EC_KEY(ptr noundef %private_key) #14
  %cmp.not.i = icmp eq ptr %call.i, null
  br i1 %cmp.not.i, label %if.then, label %is_p256_key.exit

is_p256_key.exit:                                 ; preds = %entry
  %call1.i = tail call ptr @EC_KEY_get0_group(ptr noundef nonnull %call.i) #14
  %call2.i = tail call i32 @EC_GROUP_get_curve_name(ptr noundef %call1.i) #14
  %cmp3.i.not = icmp eq i32 %call2.i, 415
  br i1 %cmp3.i.not, label %if.end, label %if.then

if.then:                                          ; preds = %entry, %is_p256_key.exit
  tail call void @ERR_put_error(i32 noundef 16, i32 noundef 0, i32 noundef 128, ptr noundef nonnull @.str, i32 noundef 322) #14
  br label %return

if.end:                                           ; preds = %is_p256_key.exit
  %tlsext_channel_id_private = getelementptr inbounds nuw i8, ptr %ctx, i64 592
  %0 = load ptr, ptr %tlsext_channel_id_private, align 8
  tail call void @EVP_PKEY_free(ptr noundef %0) #14
  %call1 = tail call ptr @EVP_PKEY_up_ref(ptr noundef %private_key) #14
  store ptr %call1, ptr %tlsext_channel_id_private, align 8
  %tlsext_channel_id_enabled = getelementptr inbounds nuw i8, ptr %ctx, i64 648
  %bf.load = load i8, ptr %tlsext_channel_id_enabled, align 8
  %bf.set = or i8 %bf.load, 8
  store i8 %bf.set, ptr %tlsext_channel_id_enabled, align 8
  br label %return

return:                                           ; preds = %if.end, %if.then
  %retval.0 = phi i32 [ 1, %if.end ], [ 0, %if.then ]
  ret i32 %retval.0
}